target datalayout = "e-m:e-p270:32:32-p271:32:32-p272:64:64-i64:64-i128:128-f80:128-n8:16:32:64-S128"
target triple = "x86_64-unknown-linux-gnu"

%"class.icu_75::UnicodeString" = type { %"class.icu_75::Replaceable", %"union.icu_75::UnicodeString::StackBufferOrFields" }
%"class.icu_75::Replaceable" = type { %"class.icu_75::UObject" }
%"class.icu_75::UObject" = type { ptr }
%"union.icu_75::UnicodeString::StackBufferOrFields" = type { %struct.anon.0, [32 x i8] }
%struct.anon.0 = type { i16, i32, i32, ptr }
%"class.icu_75::StringPiece" = type <{ ptr, i32, [4 x i8] }>

; Function Attrs: mustprogress nounwind uwtable
define linkonce_odr void @_ZN6icu_7511StringPieceC2EPKci(ptr noundef nonnull align 8 dereferenceable(12) %this, ptr noundef %offset, i32 noundef %len) unnamed_addr #1 comdat align 2 {
entry:
  %this.addr = alloca ptr, align 8
  %offset.addr = alloca ptr, align 8
  %len.addr = alloca i32, align 4
  store ptr %this, ptr %this.addr, align 8
  store ptr %offset, ptr %offset.addr, align 8
  store i32 %len, ptr %len.addr, align 4
  %this1 = load ptr, ptr %this.addr, align 8
  %ptr_ = getelementptr inbounds %"class.icu_75::StringPiece", ptr %this1, i32 0, i32 0
  %0 = load ptr, ptr %offset.addr, align 8
  store ptr %0, ptr %ptr_, align 8
  %length_ = getelementptr inbounds %"class.icu_75::StringPiece", ptr %this1, i32 0, i32 1
  %1 = load i32, ptr %len.addr, align 4
  store i32 %1, ptr %length_, align 8
  ret void
}

; Function Attrs: mustprogress uwtable
define i32 @uspoof_areBidiConfusableUTF8_75(ptr noundef %sc, i32 noundef %direction, ptr noundef %id1, i32 noundef %length1, ptr noundef %id2, i32 noundef %length2, ptr noundef %status) #0 personality ptr @__gxx_personality_v0 {
entry:
  %retval = alloca i32, align 4
  %sc.addr = alloca ptr, align 8
  %direction.addr = alloca i32, align 4
  %id1.addr = alloca ptr, align 8
  %length1.addr = alloca i32, align 4
  %id2.addr = alloca ptr, align 8
  %length2.addr = alloca i32, align 4
  %status.addr = alloca ptr, align 8
  %id1Str = alloca %"class.icu_75::UnicodeString", align 8
  %agg.tmp = alloca %"class.icu_75::StringPiece", align 8
  %id2Str = alloca %"class.icu_75::UnicodeString", align 8
  %agg.tmp3 = alloca %"class.icu_75::StringPiece", align 8
  %exn.slot = alloca ptr, align 8
  %ehselector.slot = alloca i32, align 4
  store ptr %sc, ptr %sc.addr, align 8
  store i32 %direction, ptr %direction.addr, align 4
  store ptr %id1, ptr %id1.addr, align 8
  store i32 %length1, ptr %length1.addr, align 4
  store ptr %id2, ptr %id2.addr, align 8
  store i32 %length2, ptr %length2.addr, align 4
  store ptr %status, ptr %status.addr, align 8
  %0 = load i32, ptr %length1.addr, align 4
  %cmp = icmp slt i32 %0, -1
  br i1 %cmp, label %if.then, label %lor.lhs.false

lor.lhs.false:                                    ; preds = %entry
  %1 = load i32, ptr %length2.addr, align 4
  %cmp1 = icmp slt i32 %1, -1
  br i1 %cmp1, label %if.then, label %if.end

if.then:                                          ; preds = %lor.lhs.false, %entry
  %2 = load ptr, ptr %status.addr, align 8
  store i32 1, ptr %2, align 4
  store i32 0, ptr %retval, align 4
  br label %return

if.end:                                           ; preds = %lor.lhs.false
  %3 = load ptr, ptr %id1.addr, align 8
  %4 = load i32, ptr %length1.addr, align 4
  %cmp2 = icmp sge i32 %4, 0
  br i1 %cmp2, label %cond.true, label %cond.false

cond.true:                                        ; preds = %if.end
  %5 = load i32, ptr %length1.addr, align 4
  br label %cond.end

cond.false:                                       ; preds = %if.end
  %6 = load ptr, ptr %id1.addr, align 8
  %call = call i64 @strlen(ptr noundef %6) #7
  %conv = trunc i64 %call to i32
  br label %cond.end

cond.end:                                         ; preds = %cond.false, %cond.true
  %cond = phi i32 [ %5, %cond.true ], [ %conv, %cond.false ]
  call void @_ZN6icu_7511StringPieceC2EPKci(ptr noundef nonnull align 8 dereferenceable(12) %agg.tmp, ptr noundef %3, i32 noundef %cond)
  %7 = getelementptr inbounds { ptr, i32 }, ptr %agg.tmp, i32 0, i32 0
  %8 = load ptr, ptr %7, align 8
  %9 = getelementptr inbounds { ptr, i32 }, ptr %agg.tmp, i32 0, i32 1
  %10 = load i32, ptr %9, align 8
  call void @_ZN6icu_7513UnicodeString8fromUTF8ENS_11StringPieceE(ptr sret(%"class.icu_75::UnicodeString") align 8 %id1Str, ptr %8, i32 %10)
  %11 = load ptr, ptr %id2.addr, align 8
  %12 = load i32, ptr %length2.addr, align 4
  %cmp4 = icmp sge i32 %12, 0
  br i1 %cmp4, label %cond.true5, label %cond.false6

cond.true5:                                       ; preds = %cond.end
  %13 = load i32, ptr %length2.addr, align 4
  br label %cond.end9

cond.false6:                                      ; preds = %cond.end
  %14 = load ptr, ptr %id2.addr, align 8
  %call7 = call i64 @strlen(ptr noundef %14) #7
  %conv8 = trunc i64 %call7 to i32
  br label %cond.end9

cond.end9:                                        ; preds = %cond.false6, %cond.true5
  %cond10 = phi i32 [ %13, %cond.true5 ], [ %conv8, %cond.false6 ]
  invoke void @_ZN6icu_7511StringPieceC2EPKci(ptr noundef nonnull align 8 dereferenceable(12) %agg.tmp3, ptr noundef %11, i32 noundef %cond10)
          to label %invoke.cont unwind label %lpad

invoke.cont:                                      ; preds = %cond.end9
  %15 = getelementptr inbounds { ptr, i32 }, ptr %agg.tmp3, i32 0, i32 0
  %16 = load ptr, ptr %15, align 8
  %17 = getelementptr inbounds { ptr, i32 }, ptr %agg.tmp3, i32 0, i32 1
  %18 = load i32, ptr %17, align 8
  invoke void @_ZN6icu_7513UnicodeString8fromUTF8ENS_11StringPieceE(ptr sret(%"class.icu_75::UnicodeString") align 8 %id2Str, ptr %16, i32 %18)
          to label %invoke.cont11 unwind label %lpad

invoke.cont11:                                    ; preds = %invoke.cont
  %19 = load ptr, ptr %sc.addr, align 8
  %20 = load i32, ptr %direction.addr, align 4
  %21 = load ptr, ptr %status.addr, align 8
  %call14 = invoke i32 @uspoof_areBidiConfusableUnicodeString_75(ptr noundef %19, i32 noundef %20, ptr noundef nonnull align 8 dereferenceable(64) %id1Str, ptr noundef nonnull align 8 dereferenceable(64) %id2Str, ptr noundef %21)
          to label %invoke.cont13 unwind label %lpad12

invoke.cont13:                                    ; preds = %invoke.cont11
  store i32 %call14, ptr %retval, align 4
  call void @_ZN6icu_7513UnicodeStringD1Ev(ptr noundef nonnull align 8 dereferenceable(64) %id2Str) #6
  call void @_ZN6icu_7513UnicodeStringD1Ev(ptr noundef nonnull align 8 dereferenceable(64) %id1Str) #6
  br label %return

lpad:                                             ; preds = %invoke.cont, %cond.end9
  %22 = landingpad { ptr, i32 }
          cleanup
  %23 = extractvalue { ptr, i32 } %22, 0
  store ptr %23, ptr %exn.slot, align 8
  %24 = extractvalue { ptr, i32 } %22, 1
  store i32 %24, ptr %ehselector.slot, align 4
  br label %ehcleanup

lpad12:                                           ; preds = %invoke.cont11
  %25 = landingpad { ptr, i32 }
          cleanup
  %26 = extractvalue { ptr, i32 } %25, 0
  store ptr %26, ptr %exn.slot, align 8
  %27 = extractvalue { ptr, i32 } %25, 1
  store i32 %27, ptr %ehselector.slot, align 4
  call void @_ZN6icu_7513UnicodeStringD1Ev(ptr noundef nonnull align 8 dereferenceable(64) %id2Str) #6
  br label %ehcleanup

ehcleanup:                                        ; preds = %lpad12, %lpad
  call void @_ZN6icu_7513UnicodeStringD1Ev(ptr noundef nonnull align 8 dereferenceable(64) %id1Str) #6
  br label %eh.resume

return:                                           ; preds = %invoke.cont13, %if.then
  %28 = load i32, ptr %retval, align 4
  ret i32 %28

eh.resume:                                        ; preds = %ehcleanup
  %exn = load ptr, ptr %exn.slot, align 8
  %sel = load i32, ptr %ehselector.slot, align 4
  %lpad.val = insertvalue { ptr, i32 } poison, ptr %exn, 0
  %lpad.val15 = insertvalue { ptr, i32 } %lpad.val, i32 %sel, 1
  resume { ptr, i32 } %lpad.val15
}