; Function Attrs: mustprogress uwtable
define i32 @uspoof_areBidiConfusableUTF8_75(ptr noundef %sc, i32 noundef %direction, ptr noundef %id1, i32 noundef %length1, ptr noundef %id2, i32 noundef %length2, ptr noundef %status) local_unnamed_addr #0 personality ptr @__gxx_personality_v0 {
entry:
  %id1Str = alloca %"class.icu_75::UnicodeString", align 8
  %id2Str = alloca %"class.icu_75::UnicodeString", align 8
  %cmp = icmp slt i32 %length1, -1
  %cmp1 = icmp slt i32 %length2, -1
  %or.cond = or i1 %cmp, %cmp1
  br i1 %or.cond, label %if.then, label %if.end

if.then:                                          ; preds = %entry
  store i32 1, ptr %status, align 4
  br label %return

if.end:                                           ; preds = %entry
  %cmp2 = icmp sgt i32 %length1, -1
  br i1 %cmp2, label %cond.end, label %cond.false

cond.false:                                       ; preds = %if.end
  %call = tail call i64 @strlen(ptr noundef nonnull dereferenceable(1) %id1) #7
  %conv = trunc i64 %call to i32
  br label %cond.end

cond.end:                                         ; preds = %if.end, %cond.false
  %cond = phi i32 [ %conv, %cond.false ], [ %length1, %if.end ]
  call void @_ZN6icu_7513UnicodeString8fromUTF8ENS_11StringPieceE(ptr nonnull sret(%"class.icu_75::UnicodeString") align 8 %id1Str, ptr %id1, i32 %cond)
  %cmp4 = icmp sgt i32 %length2, -1
  br i1 %cmp4, label %cond.end9, label %cond.false6

cond.false6:                                      ; preds = %cond.end
  %call7 = call i64 @strlen(ptr noundef nonnull dereferenceable(1) %id2) #7
  %conv8 = trunc i64 %call7 to i32
  br label %cond.end9

cond.end9:                                        ; preds = %cond.end, %cond.false6
  %cond10 = phi i32 [ %conv8, %cond.false6 ], [ %length2, %cond.end ]
  invoke void @_ZN6icu_7513UnicodeString8fromUTF8ENS_11StringPieceE(ptr nonnull sret(%"class.icu_75::UnicodeString") align 8 %id2Str, ptr %id2, i32 %cond10)
          to label %invoke.cont11 unwind label %lpad

invoke.cont11:                                    ; preds = %cond.end9
  %call14 = invoke i32 @uspoof_areBidiConfusableUnicodeString_75(ptr noundef %sc, i32 noundef %direction, ptr noundef nonnull align 8 dereferenceable(64) %id1Str, ptr noundef nonnull align 8 dereferenceable(64) %id2Str, ptr noundef %status)
          to label %invoke.cont13 unwind label %lpad12, !range !7

invoke.cont13:                                    ; preds = %invoke.cont11
  call void @_ZN6icu_7513UnicodeStringD1Ev(ptr noundef nonnull align 8 dereferenceable(64) %id2Str) #6
  call void @_ZN6icu_7513UnicodeStringD1Ev(ptr noundef nonnull align 8 dereferenceable(64) %id1Str) #6
  br label %return

lpad:                                             ; preds = %cond.end9
  %0 = landingpad { ptr, i32 }
          cleanup
  br label %ehcleanup

lpad12:                                           ; preds = %invoke.cont11
  %1 = landingpad { ptr, i32 }
          cleanup
  call void @_ZN6icu_7513UnicodeStringD1Ev(ptr noundef nonnull align 8 dereferenceable(64) %id2Str) #6
  br label %ehcleanup

ehcleanup:                                        ; preds = %lpad12, %lpad
  %.pn = phi { ptr, i32 } [ %1, %lpad12 ], [ %0, %lpad ]
  call void @_ZN6icu_7513UnicodeStringD1Ev(ptr noundef nonnull align 8 dereferenceable(64) %id1Str) #6
  resume { ptr, i32 } %.pn

return:                                           ; preds = %invoke.cont13, %if.then
  %retval.0 = phi i32 [ 0, %if.then ], [ %call14, %invoke.cont13 ]
  ret i32 %retval.0
}